(cnumpy.core.multiarray
_reconstruct
p0
(cnumpy
ndarray
p1
(I0
tp2
S'b'
p3
tp4
Rp5
(I1
(L5L
tp6
cnumpy
dtype
p7
(S'S1'
p8
I0
I1
tp9
Rp10
(I3
S'|'
p11
NNNI1
I1
I0
tp12
bI00
S'psbia'
p13
tp14
bg0
(g1
(I0
tp15
g3
tp16
Rp17
(I1
(L24L
tp18
g7
(S'S2'
p19
I0
I1
tp20
Rp21
(I3
S'|'
p22
NNNI2
I1
I0
tp23
bI00
S'gotodoupbewebyonoforpchihemeusmyitanasatinifnoso'
p24
tp25
bg0
(g1
(I0
tp26
g3
tp27
Rp28
(I1
(L35L
tp29
g7
(S'S3'
p30
I0
I1
tp31
Rp32
(I3
S'|'
p33
NNNI3
I1
I0
tp34
bI00
S'allitsnowhowgetnothimsheourseeoutfornewcabipooneiacusehertopheywaybuybutcarsaycanandhisanyyoudaywhotwothe'
p35
tp36
bg0
(g1
(I0
tp37
g3
tp38
Rp39
(I1
(L46L
tp40
g7
(S'S4'
p41
I0
I1
tp42
Rp43
(I3
S'|'
p44
NNNI4
I1
I0
tp45
bI00
S'taxijustoveronlythemgoodknowtheyticklikesomecostyearhomeevenwhatcorpcomeintoyourfromlongthatwiththanalsolookthisrideworkwillmeethavethenwantsellmakewhenbooktakenicemostgivewelllifttime'
p46
tp47
bg0
(g1
(I0
tp48
g3
tp49
Rp50
(I1
(L19L
tp51
g7
(S'S5'
p52
I0
I1
tp53
Rp54
(I3
S'|'
p55
NNNI5
I1
I0
tp56
bI00
S'tradegoingstockdoingafteraboutwouldcouldfirstappletheirthereratesotherthesewhichpricethinkhello'
p57
tp58
bg0
(g1
(I0
tp59
g3
tp60
Rp61
(I1
(L4L
tp62
g7
(S'S6'
p63
I0
I1
tp64
Rp65
(I3
S'|'
p66
NNNI6
I1
I0
tp67
bI00
S'tickerpickupcancelperson'
p68
tp69
bg0
(g1
(I0
tp70
g3
tp71
Rp72
(I1
(L11L
tp73
g7
(S'S7'
p74
I0
I1
tp75
Rp76
(I3
S'|'
p77
NNNI7
I1
I0
tp78
bI00
S'dropoffdesktopmorningbecausetradingmailboxoutlookeclipseinstallsellingevening'
p79
tp80
bg0
(g1
(I0
tp81
g3
tp82
Rp83
(I1
(L2L
tp84
g7
(S'S8'
p85
I0
I1
tp86
Rp87
(I3
S'|'
p88
NNNI8
I1
I0
tp89
bI00
S'increasepleasure'
p90
tp91
bg0
(g1
(I0
tp92
g3
tp93
Rp94
(I1
(L1L
tp95
g7
(S'S9'
p96
I0
I1
tp97
Rp98
(I3
S'|'
p99
NNNI9
I1
I0
tp100
bI00
S'greetings'
p101
tp102
bg0
(g1
(I0
tp103
g3
tp104
Rp105
(I1
(L1L
tp106
g7
(S'S10'
p107
I0
I1
tp108
Rp109
(I3
S'|'
p110
NNNI10
I1
I0
tp111
bI00
S'everything'
p112
tp113
bg0
(g1
(I0
tp114
g3
tp115
Rp116
(I1
(L1L
tp117
g7
(S'S11'
p118
I0
I1
tp119
Rp120
(I3
S'|'
p121
NNNI11
I1
I0
tp122
bI00
S'application'
p123
tp124
btp125
.